target datalayout = "e-m:e-p270:32:32-p271:32:32-p272:64:64-i64:64-i128:128-f80:128-n8:16:32:64-S128"
target triple = "x86_64-pc-linux-gnu"

%struct.nameData = type { [64 x i8] }
%struct.RelationData = type { %struct.RelFileLocator, ptr, i32, i32, i8, i8, i8, i8, i8, i32, i32, i32, i32, ptr, ptr, i32, %struct.LockInfoData, ptr, ptr, ptr, ptr, ptr, i8, ptr, ptr, ptr, ptr, ptr, ptr, i32, ptr, i8, ptr, ptr, i32, i8, i32, ptr, i8, ptr, ptr, ptr, ptr, ptr, ptr, ptr, i32, ptr, ptr, ptr, ptr, ptr, ptr, ptr, ptr, ptr, ptr, ptr, ptr, ptr, ptr, ptr, ptr, ptr, ptr, ptr, i32, i8, ptr }
%struct.RelFileLocator = type { i32, i32, i32 }
%struct.LockInfoData = type { %struct.LockRelId }
%struct.LockRelId = type { i32, i32 }
%struct.ScanKeyData = type { i32, i16, i16, i32, i32, %struct.FmgrInfo, i64 }
%struct.FmgrInfo = type { ptr, i32, i16, i8, i8, i8, ptr, ptr, ptr }
%struct.FormData_pg_constraint = type { i32, %struct.nameData, i32, i8, i8, i8, i8, i8, i32, i32, i32, i32, i32, i8, i8, i8, i8, i16, i8, i8 }
%struct.HeapTupleData = type { i32, %struct.ItemPointerData, i32, ptr }
%struct.ItemPointerData = type { %struct.BlockIdData, i16 }
%struct.BlockIdData = type { i16, i16 }
%struct.HeapTupleHeaderData = type { %union.anon, %struct.ItemPointerData, i16, i16, i8, [0 x i8] }
%union.anon = type { %struct.HeapTupleFields }
%struct.HeapTupleFields = type { i32, i32, %union.anon.0 }
%union.anon.0 = type { i32 }
%struct.ArrayType = type { i32, i32, i32, i32 }

@.str.1 = private unnamed_addr constant [35 x i8] c"conkey is not a 1-D smallint array\00", align 1
@.str.2 = private unnamed_addr constant [16 x i8] c"pg_constraint.c\00", align 1
@.str.12 = private unnamed_addr constant [46 x i8] c"constraint \22%s\22 for table \22%s\22 does not exist\00", align 1
@__func__.get_relation_constraint_attnos = private unnamed_addr constant [31 x i8] c"get_relation_constraint_attnos\00", align 1

; Function Attrs: inlinehint nounwind uwtable
define internal i64 @PointerGetDatum(ptr noundef %0) #3 {
  %2 = alloca ptr, align 8
  store ptr %0, ptr %2, align 8
  %3 = load ptr, ptr %2, align 8
  %4 = ptrtoint ptr %3 to i64
  ret i64 %4
}

; Function Attrs: inlinehint nounwind uwtable
define internal ptr @DatumGetPointer(i64 noundef %0) #3 {
  %2 = alloca i64, align 8
  store i64 %0, ptr %2, align 8
  %3 = load i64, ptr %2, align 8
  %4 = inttoptr i64 %3 to ptr
  ret ptr %4
}

; Function Attrs: inlinehint nounwind uwtable
define internal ptr @GETSTRUCT(ptr noundef %0) #3 {
  %2 = alloca ptr, align 8
  store ptr %0, ptr %2, align 8
  %3 = load ptr, ptr %2, align 8
  %4 = getelementptr inbounds nuw %struct.HeapTupleData, ptr %3, i32 0, i32 3
  %5 = load ptr, ptr %4, align 8
  %6 = load ptr, ptr %2, align 8
  %7 = getelementptr inbounds nuw %struct.HeapTupleData, ptr %6, i32 0, i32 3
  %8 = load ptr, ptr %7, align 8
  %9 = getelementptr inbounds nuw %struct.HeapTupleHeaderData, ptr %8, i32 0, i32 4
  %10 = load i8, ptr %9, align 2
  %11 = zext i8 %10 to i32
  %12 = sext i32 %11 to i64
  %13 = getelementptr inbounds i8, ptr %5, i64 %12
  ret ptr %13
}

; Function Attrs: inlinehint nounwind uwtable
define internal i64 @CStringGetDatum(ptr noundef %0) #3 {
  %2 = alloca ptr, align 8
  store ptr %0, ptr %2, align 8
  %3 = load ptr, ptr %2, align 8
  %4 = call i64 @PointerGetDatum(ptr noundef %3)
  ret i64 %4
}

; Function Attrs: inlinehint nounwind uwtable
define internal i64 @ObjectIdGetDatum(i32 noundef %0) #3 {
  %2 = alloca i32, align 4
  store i32 %0, ptr %2, align 4
  %3 = load i32, ptr %2, align 4
  %4 = zext i32 %3 to i64
  ret i64 %4
}

; Function Attrs: nounwind uwtable
define dso_local ptr @get_relation_constraint_attnos(i32 noundef %0, ptr noundef %1, i1 noundef zeroext %2, ptr noundef %3) #0 {
  %5 = alloca i32, align 4
  %6 = alloca ptr, align 8
  %7 = alloca i8, align 1
  %8 = alloca ptr, align 8
  %9 = alloca ptr, align 8
  %10 = alloca ptr, align 8
  %11 = alloca ptr, align 8
  %12 = alloca ptr, align 8
  %13 = alloca [3 x %struct.ScanKeyData], align 16
  %14 = alloca i64, align 8
  %15 = alloca i8, align 1
  %16 = alloca ptr, align 8
  %17 = alloca i32, align 4
  %18 = alloca ptr, align 8
  %19 = alloca i32, align 4
  store i32 %0, ptr %5, align 4
  store ptr %1, ptr %6, align 8
  %20 = zext i1 %2 to i8
  store i8 %20, ptr %7, align 1
  store ptr %3, ptr %8, align 8
  call void @llvm.lifetime.start.p0(i64 8, ptr %9) #9
  store ptr null, ptr %9, align 8
  call void @llvm.lifetime.start.p0(i64 8, ptr %10) #9
  call void @llvm.lifetime.start.p0(i64 8, ptr %11) #9
  call void @llvm.lifetime.start.p0(i64 8, ptr %12) #9
  call void @llvm.lifetime.start.p0(i64 216, ptr %13) #9
  %21 = load ptr, ptr %8, align 8
  store i32 0, ptr %21, align 4
  %22 = call ptr @table_open(i32 noundef 2606, i32 noundef 1)
  store ptr %22, ptr %10, align 8
  %23 = getelementptr inbounds [3 x %struct.ScanKeyData], ptr %13, i64 0, i64 0
  %24 = load i32, ptr %5, align 4
  %25 = call i64 @ObjectIdGetDatum(i32 noundef %24)
  call void @ScanKeyInit(ptr noundef %23, i16 noundef signext 9, i16 noundef zeroext 3, i32 noundef 184, i64 noundef %25)
  %26 = getelementptr inbounds [3 x %struct.ScanKeyData], ptr %13, i64 0, i64 1
  %27 = call i64 @ObjectIdGetDatum(i32 noundef 0)
  call void @ScanKeyInit(ptr noundef %26, i16 noundef signext 10, i16 noundef zeroext 3, i32 noundef 184, i64 noundef %27)
  %28 = getelementptr inbounds [3 x %struct.ScanKeyData], ptr %13, i64 0, i64 2
  %29 = load ptr, ptr %6, align 8
  %30 = call i64 @CStringGetDatum(ptr noundef %29)
  call void @ScanKeyInit(ptr noundef %28, i16 noundef signext 2, i16 noundef zeroext 3, i32 noundef 62, i64 noundef %30)
  %31 = load ptr, ptr %10, align 8
  %32 = getelementptr inbounds [3 x %struct.ScanKeyData], ptr %13, i64 0, i64 0
  %33 = call ptr @systable_beginscan(ptr noundef %31, i32 noundef 2665, i1 noundef zeroext true, ptr noundef null, i32 noundef 3, ptr noundef %32)
  store ptr %33, ptr %12, align 8
  %34 = load ptr, ptr %12, align 8
  %35 = call ptr @systable_getnext(ptr noundef %34)
  store ptr %35, ptr %11, align 8
  %36 = icmp ne ptr %35, null
  br i1 %36, label %37, label %128

37:                                               ; preds = %4
  call void @llvm.lifetime.start.p0(i64 8, ptr %14) #9
  call void @llvm.lifetime.start.p0(i64 1, ptr %15) #9
  %38 = load ptr, ptr %11, align 8
  %39 = call ptr @GETSTRUCT(ptr noundef %38)
  %40 = getelementptr inbounds nuw %struct.FormData_pg_constraint, ptr %39, i32 0, i32 0
  %41 = load i32, ptr %40, align 4
  %42 = load ptr, ptr %8, align 8
  store i32 %41, ptr %42, align 4
  %43 = load ptr, ptr %11, align 8
  %44 = load ptr, ptr %10, align 8
  %45 = getelementptr inbounds nuw %struct.RelationData, ptr %44, i32 0, i32 14
  %46 = load ptr, ptr %45, align 8
  %47 = call i64 @heap_getattr(ptr noundef %43, i32 noundef 21, ptr noundef %46, ptr noundef %15)
  store i64 %47, ptr %14, align 8
  %48 = load i8, ptr %15, align 1, !range !13, !noundef !14
  %49 = trunc i8 %48 to i1
  br i1 %49, label %127, label %50

50:                                               ; preds = %37
  call void @llvm.lifetime.start.p0(i64 8, ptr %16) #9
  call void @llvm.lifetime.start.p0(i64 4, ptr %17) #9
  call void @llvm.lifetime.start.p0(i64 8, ptr %18) #9
  call void @llvm.lifetime.start.p0(i64 4, ptr %19) #9
  %51 = load i64, ptr %14, align 8
  %52 = call ptr @DatumGetPointer(i64 noundef %51)
  %53 = call ptr @pg_detoast_datum(ptr noundef %52)
  store ptr %53, ptr %16, align 8
  %54 = load ptr, ptr %16, align 8
  %55 = getelementptr inbounds nuw i8, ptr %54, i64 16
  %56 = getelementptr inbounds i32, ptr %55, i64 0
  %57 = load i32, ptr %56, align 4
  store i32 %57, ptr %17, align 4
  %58 = load ptr, ptr %16, align 8
  %59 = getelementptr inbounds nuw %struct.ArrayType, ptr %58, i32 0, i32 1
  %60 = load i32, ptr %59, align 4
  %61 = icmp ne i32 %60, 1
  br i1 %61, label %75, label %62

62:                                               ; preds = %50
  %63 = load i32, ptr %17, align 4
  %64 = icmp slt i32 %63, 0
  br i1 %64, label %75, label %65

65:                                               ; preds = %62
  %66 = load ptr, ptr %16, align 8
  %67 = getelementptr inbounds nuw %struct.ArrayType, ptr %66, i32 0, i32 2
  %68 = load i32, ptr %67, align 4
  %69 = icmp ne i32 %68, 0
  br i1 %69, label %75, label %70

70:                                               ; preds = %65
  %71 = load ptr, ptr %16, align 8
  %72 = getelementptr inbounds nuw %struct.ArrayType, ptr %71, i32 0, i32 3
  %73 = load i32, ptr %72, align 4
  %74 = icmp ne i32 %73, 21
  br i1 %74, label %75, label %86

75:                                               ; preds = %70, %65, %62, %50
  br label %76

76:                                               ; preds = %75
  br i1 true, label %77, label %79

77:                                               ; preds = %76
  %78 = call zeroext i1 @errstart_cold(i32 noundef 21, ptr noundef null) #11
  br i1 %78, label %81, label %83

79:                                               ; preds = %76
  %80 = call zeroext i1 @errstart(i32 noundef 21, ptr noundef null)
  br i1 %80, label %81, label %83

81:                                               ; preds = %79, %77
  %82 = call i32 (ptr, ...) @errmsg_internal(ptr noundef @.str.1)
  call void @errfinish(ptr noundef @.str.2, i32 noundef 1268, ptr noundef @__func__.get_relation_constraint_attnos)
  br label %83

83:                                               ; preds = %81, %79, %77
  unreachable

84:                                               ; No predecessors!
  br label %85

85:                                               ; preds = %84
  br label %86

86:                                               ; preds = %85, %70
  %87 = load ptr, ptr %16, align 8
  %88 = load ptr, ptr %16, align 8
  %89 = getelementptr inbounds nuw %struct.ArrayType, ptr %88, i32 0, i32 2
  %90 = load i32, ptr %89, align 4
  %91 = icmp ne i32 %90, 0
  br i1 %91, label %92, label %97

92:                                               ; preds = %86
  %93 = load ptr, ptr %16, align 8
  %94 = getelementptr inbounds nuw %struct.ArrayType, ptr %93, i32 0, i32 2
  %95 = load i32, ptr %94, align 4
  %96 = sext i32 %95 to i64
  br label %106

97:                                               ; preds = %86
  %98 = load ptr, ptr %16, align 8
  %99 = getelementptr inbounds nuw %struct.ArrayType, ptr %98, i32 0, i32 1
  %100 = load i32, ptr %99, align 4
  %101 = sext i32 %100 to i64
  %102 = mul i64 8, %101
  %103 = add i64 16, %102
  %104 = add i64 %103, 7
  %105 = and i64 %104, -8
  br label %106

106:                                              ; preds = %97, %92
  %107 = phi i64 [ %96, %92 ], [ %105, %97 ]
  %108 = getelementptr inbounds nuw i8, ptr %87, i64 %107
  store ptr %108, ptr %18, align 8
  store i32 0, ptr %19, align 4
  br label %109

109:                                              ; preds = %123, %106
  %110 = load i32, ptr %19, align 4
  %111 = load i32, ptr %17, align 4
  %112 = icmp slt i32 %110, %111
  br i1 %112, label %113, label %126

113:                                              ; preds = %109
  %114 = load ptr, ptr %9, align 8
  %115 = load ptr, ptr %18, align 8
  %116 = load i32, ptr %19, align 4
  %117 = sext i32 %116 to i64
  %118 = getelementptr inbounds i16, ptr %115, i64 %117
  %119 = load i16, ptr %118, align 2
  %120 = sext i16 %119 to i32
  %121 = sub i32 %120, -7
  %122 = call ptr @bms_add_member(ptr noundef %114, i32 noundef %121)
  store ptr %122, ptr %9, align 8
  br label %123

123:                                              ; preds = %113
  %124 = load i32, ptr %19, align 4
  %125 = add i32 %124, 1
  store i32 %125, ptr %19, align 4
  br label %109, !llvm.loop !23

126:                                              ; preds = %109
  call void @llvm.lifetime.end.p0(i64 4, ptr %19) #9
  call void @llvm.lifetime.end.p0(i64 8, ptr %18) #9
  call void @llvm.lifetime.end.p0(i64 4, ptr %17) #9
  call void @llvm.lifetime.end.p0(i64 8, ptr %16) #9
  br label %127

127:                                              ; preds = %126, %37
  call void @llvm.lifetime.end.p0(i64 1, ptr %15) #9
  call void @llvm.lifetime.end.p0(i64 8, ptr %14) #9
  br label %128

128:                                              ; preds = %127, %4
  %129 = load ptr, ptr %12, align 8
  call void @systable_endscan(ptr noundef %129)
  %130 = load ptr, ptr %8, align 8
  %131 = load i32, ptr %130, align 4
  %132 = icmp ne i32 %131, 0
  br i1 %132, label %151, label %133

133:                                              ; preds = %128
  %134 = load i8, ptr %7, align 1, !range !13, !noundef !14
  %135 = trunc i8 %134 to i1
  br i1 %135, label %151, label %136

136:                                              ; preds = %133
  br label %137

137:                                              ; preds = %136
  br i1 true, label %138, label %140

138:                                              ; preds = %137
  %139 = call zeroext i1 @errstart_cold(i32 noundef 21, ptr noundef null) #11
  br i1 %139, label %142, label %148

140:                                              ; preds = %137
  %141 = call zeroext i1 @errstart(i32 noundef 21, ptr noundef null)
  br i1 %141, label %142, label %148

142:                                              ; preds = %140, %138
  %143 = call i32 @errcode(i32 noundef 67137668)
  %144 = load ptr, ptr %6, align 8
  %145 = load i32, ptr %5, align 4
  %146 = call ptr @get_rel_name(i32 noundef %145)
  %147 = call i32 (ptr, ...) @errmsg(ptr noundef @.str.12, ptr noundef %144, ptr noundef %146)
  call void @errfinish(ptr noundef @.str.2, i32 noundef 1287, ptr noundef @__func__.get_relation_constraint_attnos)
  br label %148

148:                                              ; preds = %142, %140, %138
  unreachable

149:                                              ; No predecessors!
  br label %150

150:                                              ; preds = %149
  br label %151

151:                                              ; preds = %150, %133, %128
  %152 = load ptr, ptr %10, align 8
  call void @table_close(ptr noundef %152, i32 noundef 1)
  %153 = load ptr, ptr %9, align 8
  call void @llvm.lifetime.end.p0(i64 216, ptr %13) #9
  call void @llvm.lifetime.end.p0(i64 8, ptr %12) #9
  call void @llvm.lifetime.end.p0(i64 8, ptr %11) #9
  call void @llvm.lifetime.end.p0(i64 8, ptr %10) #9
  call void @llvm.lifetime.end.p0(i64 8, ptr %9) #9
  ret ptr %153
}