; Function Attrs: nounwind uwtable
define dso_local ptr @get_relation_constraint_attnos(i32 noundef %0, ptr noundef %1, i1 noundef zeroext %2, ptr noundef captures(none) initializes((0, 4)) %3) local_unnamed_addr #0 {
  %5 = alloca [3 x %struct.ScanKeyData], align 16
  %6 = alloca i8, align 1
  call void @llvm.lifetime.start.p0(i64 216, ptr nonnull %5) #12
  store i32 0, ptr %3, align 4
  %7 = tail call ptr @table_open(i32 noundef 2606, i32 noundef 1) #12
  %8 = zext i32 %0 to i64
  call void @ScanKeyInit(ptr noundef nonnull %5, i16 noundef signext 9, i16 noundef zeroext 3, i32 noundef 184, i64 noundef %8) #12
  %9 = getelementptr inbounds nuw i8, ptr %5, i64 72
  call void @ScanKeyInit(ptr noundef nonnull %9, i16 noundef signext 10, i16 noundef zeroext 3, i32 noundef 184, i64 noundef 0) #12
  %10 = getelementptr inbounds nuw i8, ptr %5, i64 144
  %11 = ptrtoint ptr %1 to i64
  call void @ScanKeyInit(ptr noundef nonnull %10, i16 noundef signext 2, i16 noundef zeroext 3, i32 noundef 62, i64 noundef %11) #12
  %12 = call ptr @systable_beginscan(ptr noundef %7, i32 noundef 2665, i1 noundef zeroext true, ptr noundef null, i32 noundef 3, ptr noundef nonnull %5) #12
  %13 = call ptr @systable_getnext(ptr noundef %12) #12
  %.not = icmp eq ptr %13, null
  br i1 %.not, label %51, label %14

14:                                               ; preds = %4
  call void @llvm.lifetime.start.p0(i64 1, ptr nonnull %6) #12
  %15 = getelementptr i8, ptr %13, i64 16
  %.val = load ptr, ptr %15, align 8
  %16 = getelementptr inbounds nuw i8, ptr %.val, i64 22
  %17 = load i8, ptr %16, align 2
  %18 = zext i8 %17 to i64
  %19 = getelementptr inbounds nuw i8, ptr %.val, i64 %18
  %20 = load i32, ptr %19, align 4
  store i32 %20, ptr %3, align 4
  %21 = getelementptr inbounds nuw i8, ptr %7, i64 64
  %22 = load ptr, ptr %21, align 8
  %23 = call fastcc i64 @heap_getattr(ptr noundef %13, ptr noundef %22, ptr noundef %6)
  %24 = load i8, ptr %6, align 1, !range !16, !noundef !17
  %25 = trunc nuw i8 %24 to i1
  br i1 %25, label %.loopexit, label %26

26:                                               ; preds = %14
  %27 = inttoptr i64 %23 to ptr
  %28 = call ptr @pg_detoast_datum(ptr noundef %27) #12
  %29 = getelementptr inbounds nuw i8, ptr %28, i64 16
  %30 = load i32, ptr %29, align 4
  %31 = getelementptr inbounds nuw i8, ptr %28, i64 4
  %32 = load i32, ptr %31, align 4
  %33 = icmp ne i32 %32, 1
  %34 = icmp slt i32 %30, 0
  %or.cond = select i1 %33, i1 true, i1 %34
  br i1 %or.cond, label %41, label %35

35:                                               ; preds = %26
  %36 = getelementptr inbounds nuw i8, ptr %28, i64 8
  %37 = load i32, ptr %36, align 4
  %.not37 = icmp eq i32 %37, 0
  br i1 %.not37, label %38, label %41

38:                                               ; preds = %35
  %39 = getelementptr inbounds nuw i8, ptr %28, i64 12
  %40 = load i32, ptr %39, align 4
  %.not38 = icmp eq i32 %40, 21
  br i1 %.not38, label %44, label %41

41:                                               ; preds = %38, %35, %26
  %42 = call zeroext i1 @errstart_cold(i32 noundef 21, ptr noundef null) #14
  call void @llvm.assume(i1 %42)
  %43 = call i32 (ptr, ...) @errmsg_internal(ptr noundef nonnull @.str.1) #12
  call void @errfinish(ptr noundef nonnull @.str.2, i32 noundef 1268, ptr noundef nonnull @__func__.get_relation_constraint_attnos) #12
  unreachable

44:                                               ; preds = %38
  %45 = getelementptr inbounds nuw i8, ptr %28, i64 24
  %.not43 = icmp eq i32 %30, 0
  br i1 %.not43, label %.loopexit, label %.lr.ph.preheader

.lr.ph.preheader:                                 ; preds = %44
  %wide.trip.count = zext nneg i32 %30 to i64
  br label %.lr.ph

.lr.ph:                                           ; preds = %.lr.ph.preheader, %.lr.ph
  %indvars.iv = phi i64 [ 0, %.lr.ph.preheader ], [ %indvars.iv.next, %.lr.ph ]
  %.240 = phi ptr [ null, %.lr.ph.preheader ], [ %50, %.lr.ph ]
  %46 = getelementptr inbounds nuw i16, ptr %45, i64 %indvars.iv
  %47 = load i16, ptr %46, align 2
  %48 = sext i16 %47 to i32
  %49 = add nsw i32 %48, 7
  %50 = call ptr @bms_add_member(ptr noundef %.240, i32 noundef %49) #12
  %indvars.iv.next = add nuw nsw i64 %indvars.iv, 1
  %exitcond.not = icmp eq i64 %indvars.iv.next, %wide.trip.count
  br i1 %exitcond.not, label %.loopexit, label %.lr.ph, !llvm.loop !21

.loopexit:                                        ; preds = %.lr.ph, %44, %14
  %.1 = phi ptr [ null, %14 ], [ null, %44 ], [ %50, %.lr.ph ]
  call void @llvm.lifetime.end.p0(i64 1, ptr nonnull %6) #12
  br label %51

51:                                               ; preds = %.loopexit, %4
  %.032 = phi ptr [ %.1, %.loopexit ], [ null, %4 ]
  call void @systable_endscan(ptr noundef %12) #12
  %52 = load i32, ptr %3, align 4
  %.not39 = icmp ne i32 %52, 0
  %brmerge = or i1 %2, %.not39
  br i1 %brmerge, label %58, label %53

53:                                               ; preds = %51
  %54 = call zeroext i1 @errstart_cold(i32 noundef 21, ptr noundef null) #14
  call void @llvm.assume(i1 %54)
  %55 = call i32 @errcode(i32 noundef 67137668) #12
  %56 = call ptr @get_rel_name(i32 noundef %0) #12
  %57 = call i32 (ptr, ...) @errmsg(ptr noundef nonnull @.str.12, ptr noundef %1, ptr noundef %56) #12
  call void @errfinish(ptr noundef nonnull @.str.2, i32 noundef 1287, ptr noundef nonnull @__func__.get_relation_constraint_attnos) #12
  unreachable

58:                                               ; preds = %51
  call void @table_close(ptr noundef %7, i32 noundef 1) #12
  call void @llvm.lifetime.end.p0(i64 216, ptr nonnull %5) #12
  ret ptr %.032
}